(dp0
S'filtro_descripcion'
p1
(dp2
S'rname'
p3
S'"filtro_descripcion"'
p4
sS'sortable'
p5
I3
sS'raw_rname'
p6
g1
sS'notnull'
p7
I00
sS'length'
p8
I200
sS'sql'
p9
S'VARCHAR(200) NULL'
p10
sS'unique'
p11
I00
sS'type'
p12
S'string'
p13
ssS'id'
p14
(dp15
g3
S'"id"'
p16
sg5
I1
sg6
g14
sg7
I00
sg8
I512
sg9
S'INT IDENTITY PRIMARY KEY'
p17
sg11
I00
sg12
g14
ssS'name'
p18
(dp19
g3
S'"name"'
p20
sg5
I2
sg6
g18
sg7
I00
sg8
I100
sg9
S'VARCHAR(100) NULL'
p21
sg11
I00
sg12
g13
ss.